; Function Attrs: mustprogress uwtable
define void @_ZN7openvdb5v11_06points12AttributeSet14readAttributesERSi(ptr nocapture noundef nonnull readonly align 8 dereferenceable(40) %this, ptr noundef nonnull align 8 dereferenceable(16) %is) local_unnamed_addr #3 align 2 {
entry:
  %mAttrs = getelementptr inbounds i8, ptr %this, i64 16
  %_M_finish.i = getelementptr inbounds i8, ptr %this, i64 24
  %0 = load ptr, ptr %_M_finish.i, align 8
  %1 = load ptr, ptr %mAttrs, align 8
  %cmp7.not = icmp eq ptr %0, %1
  br i1 %cmp7.not, label %for.end, label %for.body

for.body:                                         ; preds = %entry, %for.body
  %2 = phi ptr [ %6, %for.body ], [ %1, %entry ]
  %i.08 = phi i64 [ %inc, %for.body ], [ 0, %entry ]
  %add.ptr.i = getelementptr inbounds %"class.std::shared_ptr.18", ptr %2, i64 %i.08
  %3 = load ptr, ptr %add.ptr.i, align 8
  %vtable = load ptr, ptr %3, align 8
  %vfn = getelementptr inbounds i8, ptr %vtable, i64 216
  %4 = load ptr, ptr %vfn, align 8
  tail call void %4(ptr noundef nonnull align 8 dereferenceable(24) %3, ptr noundef nonnull align 8 dereferenceable(16) %is)
  %inc = add nuw i64 %i.08, 1
  %5 = load ptr, ptr %_M_finish.i, align 8
  %6 = load ptr, ptr %mAttrs, align 8
  %sub.ptr.lhs.cast.i = ptrtoint ptr %5 to i64
  %sub.ptr.rhs.cast.i = ptrtoint ptr %6 to i64
  %sub.ptr.sub.i = sub i64 %sub.ptr.lhs.cast.i, %sub.ptr.rhs.cast.i
  %sub.ptr.div.i = ashr exact i64 %sub.ptr.sub.i, 4
  %cmp = icmp ult i64 %inc, %sub.ptr.div.i
  br i1 %cmp, label %for.body, label %for.end, !llvm.loop !44

for.end:                                          ; preds = %for.body, %entry
  ret void
}